target datalayout = "e-m:e-p270:32:32-p271:32:32-p272:64:64-i64:64-i128:128-f80:128-n8:16:32:64-S128"
target triple = "x86_64-pc-linux-gnu"

%struct.H5O_pline_t = type { %struct.H5O_shared_t, i32, i64, i64, ptr }
%struct.H5O_shared_t = type { i32, ptr, i32, %union.anon }
%union.anon = type { %struct.H5O_mesg_loc_t }
%struct.H5O_mesg_loc_t = type { i32, i64 }

@H5_libterm_g = external global i8, align 1
@.str.1 = private unnamed_addr constant [101 x i8] c"generated/home/dtcxzyw/WorkSpace/Projects/compilers/llvm-opt-benchmark/bench/hdf5/hdf5/src/H5Pocpl.c\00", align 1
@H5E_FUNC_g = external global i64, align 8
@H5E_CANTINIT_g = external global i64, align 8
@H5P_init_g = external global i8, align 1
@.str.3 = private unnamed_addr constant [32 x i8] c"interface initialization failed\00", align 1
@H5E_ARGS_g = external global i64, align 8
@H5E_PLIST_g = external global i64, align 8
@H5E_CANTGET_g = external global i64, align 8
@H5E_BADVALUE_g = external global i64, align 8
@.str.19 = private unnamed_addr constant [6 x i8] c"pline\00", align 1
@.str.20 = private unnamed_addr constant [19 x i8] c"can't get pipeline\00", align 1
@.str.31 = private unnamed_addr constant [22 x i8] c"can't get filter info\00", align 1
@__func__.H5P_get_filter_by_id = private unnamed_addr constant [21 x i8] c"H5P_get_filter_by_id\00", align 1
@.str.32 = private unnamed_addr constant [21 x i8] c"filter ID is invalid\00", align 1

; Function Attrs: nounwind uwtable
define i32 @H5P_get_filter_by_id(ptr noundef %0, i32 noundef %1, ptr noundef %2, ptr noundef %3, ptr noundef %4, i64 noundef %5, ptr noundef %6, ptr noundef %7) #0 {
  %9 = alloca ptr, align 8
  %10 = alloca i32, align 4
  %11 = alloca ptr, align 8
  %12 = alloca ptr, align 8
  %13 = alloca ptr, align 8
  %14 = alloca i64, align 8
  %15 = alloca ptr, align 8
  %16 = alloca ptr, align 8
  %17 = alloca %struct.H5O_pline_t, align 8
  %18 = alloca ptr, align 8
  %19 = alloca i32, align 4
  %20 = alloca i8, align 1
  store ptr %0, ptr %9, align 8, !tbaa !16
  store i32 %1, ptr %10, align 4, !tbaa !8
  store ptr %2, ptr %11, align 8, !tbaa !18
  store ptr %3, ptr %12, align 8, !tbaa !28
  store ptr %4, ptr %13, align 8, !tbaa !18
  store i64 %5, ptr %14, align 8, !tbaa !14
  store ptr %6, ptr %15, align 8, !tbaa !30
  store ptr %7, ptr %16, align 8, !tbaa !18
  call void @llvm.lifetime.start.p0(i64 72, ptr %17) #10
  call void @llvm.lifetime.start.p0(i64 8, ptr %18) #10
  call void @llvm.lifetime.start.p0(i64 4, ptr %19) #10
  store i32 0, ptr %19, align 4, !tbaa !8
  call void @llvm.lifetime.start.p0(i64 1, ptr %20) #10
  store i8 0, ptr %20, align 1, !tbaa !10
  %21 = load i8, ptr @H5P_init_g, align 1, !tbaa !10, !range !12, !noundef !13
  %22 = trunc i8 %21 to i1
  br i1 %22, label %27, label %23

23:                                               ; preds = %8
  %24 = load i8, ptr @H5_libterm_g, align 1, !tbaa !10, !range !12, !noundef !13
  %25 = trunc i8 %24 to i1
  %26 = xor i1 %25, true
  br label %27

27:                                               ; preds = %23, %8
  %28 = phi i1 [ false, %8 ], [ %26, %23 ]
  %29 = xor i1 %28, true
  %30 = xor i1 %29, true
  %31 = zext i1 %30 to i32
  %32 = sext i32 %31 to i64
  %33 = call i64 @llvm.expect.i64(i64 %32, i64 0)
  %34 = icmp ne i64 %33, 0
  br i1 %34, label %35, label %58

35:                                               ; preds = %27
  store i8 1, ptr @H5P_init_g, align 1, !tbaa !10
  %36 = call i32 @H5P__init_package()
  %37 = icmp slt i32 %36, 0
  br i1 %37, label %38, label %57

38:                                               ; preds = %35
  store i8 0, ptr @H5P_init_g, align 1, !tbaa !10
  br label %39

39:                                               ; preds = %38
  br label %40

40:                                               ; preds = %39
  br label %41

41:                                               ; preds = %40
  %42 = load i64, ptr @H5E_FUNC_g, align 8, !tbaa !14
  %43 = load i64, ptr @H5E_CANTINIT_g, align 8, !tbaa !14
  %44 = call i32 (ptr, ptr, i32, i64, i64, ptr, ...) @H5E_printf_stack(ptr noundef @.str.1, ptr noundef @__func__.H5P_get_filter_by_id, i32 noundef 835, i64 noundef %42, i64 noundef %43, ptr noundef @.str.3)
  br label %45

45:                                               ; preds = %41
  br label %46

46:                                               ; preds = %45
  store i8 1, ptr %20, align 1, !tbaa !10
  %47 = load i8, ptr %20, align 1, !tbaa !10, !range !12, !noundef !13
  %48 = trunc i8 %47 to i1
  %49 = zext i1 %48 to i8
  store i8 %49, ptr %20, align 1, !tbaa !10
  br label %50

50:                                               ; preds = %46
  br label %51

51:                                               ; preds = %50
  br label %52

52:                                               ; preds = %51
  store i32 -1, ptr %19, align 4, !tbaa !8
  br label %149

53:                                               ; No predecessors!
  br label %54

54:                                               ; preds = %53
  br label %55

55:                                               ; preds = %54
  br label %56

56:                                               ; preds = %55
  br label %57

57:                                               ; preds = %56, %35
  br label %58

58:                                               ; preds = %57, %27
  %59 = load i8, ptr @H5P_init_g, align 1, !tbaa !10, !range !12, !noundef !13
  %60 = trunc i8 %59 to i1
  br i1 %60, label %65, label %61

61:                                               ; preds = %58
  %62 = load i8, ptr @H5_libterm_g, align 1, !tbaa !10, !range !12, !noundef !13
  %63 = trunc i8 %62 to i1
  %64 = xor i1 %63, true
  br label %65

65:                                               ; preds = %61, %58
  %66 = phi i1 [ true, %58 ], [ %64, %61 ]
  %67 = xor i1 %66, true
  %68 = xor i1 %67, true
  %69 = zext i1 %68 to i32
  %70 = sext i32 %69 to i64
  %71 = call i64 @llvm.expect.i64(i64 %70, i64 1)
  %72 = icmp ne i64 %71, 0
  br i1 %72, label %73, label %150

73:                                               ; preds = %65
  %74 = load ptr, ptr %9, align 8, !tbaa !16
  %75 = call i32 @H5P_peek(ptr noundef %74, ptr noundef @.str.19, ptr noundef %17)
  %76 = icmp slt i32 %75, 0
  br i1 %76, label %77, label %96

77:                                               ; preds = %73
  br label %78

78:                                               ; preds = %77
  br label %79

79:                                               ; preds = %78
  br label %80

80:                                               ; preds = %79
  %81 = load i64, ptr @H5E_PLIST_g, align 8, !tbaa !14
  %82 = load i64, ptr @H5E_CANTGET_g, align 8, !tbaa !14
  %83 = call i32 (ptr, ptr, i32, i64, i64, ptr, ...) @H5E_printf_stack(ptr noundef @.str.1, ptr noundef @__func__.H5P_get_filter_by_id, i32 noundef 839, i64 noundef %81, i64 noundef %82, ptr noundef @.str.20)
  br label %84

84:                                               ; preds = %80
  br label %85

85:                                               ; preds = %84
  store i8 1, ptr %20, align 1, !tbaa !10
  %86 = load i8, ptr %20, align 1, !tbaa !10, !range !12, !noundef !13
  %87 = trunc i8 %86 to i1
  %88 = zext i1 %87 to i8
  store i8 %88, ptr %20, align 1, !tbaa !10
  br label %89

89:                                               ; preds = %85
  br label %90

90:                                               ; preds = %89
  br label %91

91:                                               ; preds = %90
  store i32 -1, ptr %19, align 4, !tbaa !8
  br label %149

92:                                               ; No predecessors!
  br label %93

93:                                               ; preds = %92
  br label %94

94:                                               ; preds = %93
  br label %95

95:                                               ; preds = %94
  br label %96

96:                                               ; preds = %95, %73
  %97 = load i32, ptr %10, align 4, !tbaa !8
  %98 = call ptr @H5Z_filter_info(ptr noundef %17, i32 noundef %97)
  store ptr %98, ptr %18, align 8, !tbaa !33
  %99 = icmp eq ptr null, %98
  br i1 %99, label %100, label %119

100:                                              ; preds = %96
  br label %101

101:                                              ; preds = %100
  br label %102

102:                                              ; preds = %101
  br label %103

103:                                              ; preds = %102
  %104 = load i64, ptr @H5E_ARGS_g, align 8, !tbaa !14
  %105 = load i64, ptr @H5E_BADVALUE_g, align 8, !tbaa !14
  %106 = call i32 (ptr, ptr, i32, i64, i64, ptr, ...) @H5E_printf_stack(ptr noundef @.str.1, ptr noundef @__func__.H5P_get_filter_by_id, i32 noundef 843, i64 noundef %104, i64 noundef %105, ptr noundef @.str.32)
  br label %107

107:                                              ; preds = %103
  br label %108

108:                                              ; preds = %107
  store i8 1, ptr %20, align 1, !tbaa !10
  %109 = load i8, ptr %20, align 1, !tbaa !10, !range !12, !noundef !13
  %110 = trunc i8 %109 to i1
  %111 = zext i1 %110 to i8
  store i8 %111, ptr %20, align 1, !tbaa !10
  br label %112

112:                                              ; preds = %108
  br label %113

113:                                              ; preds = %112
  br label %114

114:                                              ; preds = %113
  store i32 -1, ptr %19, align 4, !tbaa !8
  br label %149

115:                                              ; No predecessors!
  br label %116

116:                                              ; preds = %115
  br label %117

117:                                              ; preds = %116
  br label %118

118:                                              ; preds = %117
  br label %119

119:                                              ; preds = %118, %96
  %120 = load ptr, ptr %18, align 8, !tbaa !33
  %121 = load ptr, ptr %11, align 8, !tbaa !18
  %122 = load ptr, ptr %12, align 8, !tbaa !28
  %123 = load ptr, ptr %13, align 8, !tbaa !18
  %124 = load i64, ptr %14, align 8, !tbaa !14
  %125 = load ptr, ptr %15, align 8, !tbaa !30
  %126 = load ptr, ptr %16, align 8, !tbaa !18
  %127 = call i32 @H5P__get_filter(ptr noundef %120, ptr noundef %121, ptr noundef %122, ptr noundef %123, i64 noundef %124, ptr noundef %125, ptr noundef %126)
  %128 = icmp slt i32 %127, 0
  br i1 %128, label %129, label %148

129:                                              ; preds = %119
  br label %130

130:                                              ; preds = %129
  br label %131

131:                                              ; preds = %130
  br label %132

132:                                              ; preds = %131
  %133 = load i64, ptr @H5E_PLIST_g, align 8, !tbaa !14
  %134 = load i64, ptr @H5E_CANTGET_g, align 8, !tbaa !14
  %135 = call i32 (ptr, ptr, i32, i64, i64, ptr, ...) @H5E_printf_stack(ptr noundef @.str.1, ptr noundef @__func__.H5P_get_filter_by_id, i32 noundef 847, i64 noundef %133, i64 noundef %134, ptr noundef @.str.31)
  br label %136

136:                                              ; preds = %132
  br label %137

137:                                              ; preds = %136
  store i8 1, ptr %20, align 1, !tbaa !10
  %138 = load i8, ptr %20, align 1, !tbaa !10, !range !12, !noundef !13
  %139 = trunc i8 %138 to i1
  %140 = zext i1 %139 to i8
  store i8 %140, ptr %20, align 1, !tbaa !10
  br label %141

141:                                              ; preds = %137
  br label %142

142:                                              ; preds = %141
  br label %143

143:                                              ; preds = %142
  store i32 -1, ptr %19, align 4, !tbaa !8
  br label %149

144:                                              ; No predecessors!
  br label %145

145:                                              ; preds = %144
  br label %146

146:                                              ; preds = %145
  br label %147

147:                                              ; preds = %146
  br label %148

148:                                              ; preds = %147, %119
  br label %149

149:                                              ; preds = %148, %143, %114, %91, %52
  br label %150

150:                                              ; preds = %149, %65
  %151 = load i32, ptr %19, align 4, !tbaa !8
  call void @llvm.lifetime.end.p0(i64 1, ptr %20) #10
  call void @llvm.lifetime.end.p0(i64 4, ptr %19) #10
  call void @llvm.lifetime.end.p0(i64 8, ptr %18) #10
  call void @llvm.lifetime.end.p0(i64 72, ptr %17) #10
  ret i32 %151
}