; Function Attrs: nounwind uwtable
define range(i32 -1, 1) i32 @H5P_get_filter_by_id(ptr noundef %0, i32 noundef %1, ptr noundef captures(address_is_null) %2, ptr noundef captures(address_is_null) %3, ptr noundef captures(address_is_null) %4, i64 noundef %5, ptr noundef %6, ptr noundef %7) local_unnamed_addr #0 {
  %9 = alloca %struct.H5O_pline_t, align 8
  call void @llvm.lifetime.start.p0(i64 72, ptr nonnull %9) #10
  %10 = load i8, ptr @H5P_init_g, align 1, !tbaa !3, !range !7, !noundef !8
  %11 = trunc nuw i8 %10 to i1
  %12 = load i8, ptr @H5_libterm_g, align 1, !range !7
  %13 = trunc nuw i8 %12 to i1
  %14 = select i1 %11, i1 true, i1 %13
  br i1 %14, label %22, label %15, !prof !9

15:                                               ; preds = %8
  store i8 1, ptr @H5P_init_g, align 1, !tbaa !3
  %16 = tail call i32 @H5P__init_package() #10
  %17 = icmp slt i32 %16, 0
  br i1 %17, label %18, label %._crit_edge

._crit_edge:                                      ; preds = %15
  %.pre = load i8, ptr @H5P_init_g, align 1, !tbaa !3, !range !7
  %.pre14 = load i8, ptr @H5_libterm_g, align 1, !range !7
  %.pre15 = trunc nuw i8 %.pre to i1
  %.pre16 = trunc nuw i8 %.pre14 to i1
  br label %22

18:                                               ; preds = %15
  store i8 0, ptr @H5P_init_g, align 1, !tbaa !3
  %19 = load i64, ptr @H5E_FUNC_g, align 8, !tbaa !10
  %20 = load i64, ptr @H5E_CANTINIT_g, align 8, !tbaa !10
  %21 = tail call i32 (ptr, ptr, i32, i64, i64, ptr, ...) @H5E_printf_stack(ptr noundef nonnull @.str.1, ptr noundef nonnull @__func__.H5P_get_filter_by_id, i32 noundef 835, i64 noundef %19, i64 noundef %20, ptr noundef nonnull @.str.3) #10
  br label %41

22:                                               ; preds = %._crit_edge, %8
  %.pre-phi17 = phi i1 [ %.pre16, %._crit_edge ], [ %13, %8 ]
  %.pre-phi = phi i1 [ %.pre15, %._crit_edge ], [ %11, %8 ]
  %23 = xor i1 %.pre-phi17, true
  %24 = select i1 %.pre-phi, i1 true, i1 %23
  br i1 %24, label %25, label %41, !prof !9

25:                                               ; preds = %22
  %26 = call i32 @H5P_peek(ptr noundef %0, ptr noundef nonnull @.str.19, ptr noundef nonnull %9) #10
  %27 = icmp slt i32 %26, 0
  br i1 %27, label %28, label %32

28:                                               ; preds = %25
  %29 = load i64, ptr @H5E_PLIST_g, align 8, !tbaa !10
  %30 = load i64, ptr @H5E_CANTGET_g, align 8, !tbaa !10
  %31 = call i32 (ptr, ptr, i32, i64, i64, ptr, ...) @H5E_printf_stack(ptr noundef nonnull @.str.1, ptr noundef nonnull @__func__.H5P_get_filter_by_id, i32 noundef 839, i64 noundef %29, i64 noundef %30, ptr noundef nonnull @.str.20) #10
  br label %41

32:                                               ; preds = %25
  %33 = call ptr @H5Z_filter_info(ptr noundef nonnull %9, i32 noundef %1) #10
  %34 = icmp eq ptr %33, null
  br i1 %34, label %35, label %39

35:                                               ; preds = %32
  %36 = load i64, ptr @H5E_ARGS_g, align 8, !tbaa !10
  %37 = load i64, ptr @H5E_BADVALUE_g, align 8, !tbaa !10
  %38 = call i32 (ptr, ptr, i32, i64, i64, ptr, ...) @H5E_printf_stack(ptr noundef nonnull @.str.1, ptr noundef nonnull @__func__.H5P_get_filter_by_id, i32 noundef 843, i64 noundef %36, i64 noundef %37, ptr noundef nonnull @.str.32) #10
  br label %41

39:                                               ; preds = %32
  %40 = call i32 @H5P__get_filter(ptr noundef nonnull %33, ptr noundef %2, ptr noundef %3, ptr noundef %4, i64 noundef %5, ptr noundef %6, ptr noundef %7)
  br label %41

41:                                               ; preds = %39, %18, %28, %35, %22
  %.0 = phi i32 [ -1, %18 ], [ -1, %28 ], [ -1, %35 ], [ 0, %39 ], [ 0, %22 ]
  call void @llvm.lifetime.end.p0(i64 72, ptr nonnull %9) #10
  ret i32 %.0
}